target datalayout = "e-m:e-p270:32:32-p271:32:32-p272:64:64-i64:64-i128:128-f80:128-n8:16:32:64-S128"
target triple = "x86_64-pc-linux-gnu"

%struct._psqlSettings = type { ptr, i32, ptr, i8, ptr, ptr, %struct.printQueryOpt, ptr, ptr, ptr, i8, i8, i32, i32, ptr, ptr, i8, [4 x ptr], i8, i32, ptr, i8, i32, ptr, ptr, i64, i64, i8, ptr, ptr, ptr, i8, i8, i8, i8, i8, i8, i8, i32, i32, i32, i32, i32, i32, i32, i32, ptr, ptr, ptr, i32, i8, i32 }
%struct.printQueryOpt = type { %struct.printTableOpt, ptr, ptr, ptr, i8, ptr, i32 }
%struct.printTableOpt = type { i32, i16, i32, i32, i16, i16, i32, i8, i8, i8, i8, i64, ptr, %struct.separator, %struct.separator, [2 x i8], i8, ptr, i32, i32, i32, i32, i32, i32 }
%struct.separator = type { ptr, i8 }
%struct.__jmp_buf_tag = type { [8 x i64], i32, %struct.__sigset_t }
%struct.__sigset_t = type { [16 x i64] }

@pset = external global %struct._psqlSettings, align 8
@stdout = external global ptr, align 8
@.str.14 = private unnamed_addr constant [3 x i8] c"%s\00", align 1
@sigint_interrupt_jmp = external global [1 x %struct.__jmp_buf_tag], align 16
@.str.15 = private unnamed_addr constant [17 x i8] c"canceled by user\00", align 1
@.str.16 = private unnamed_addr constant [120 x i8] c"Enter data to be copied followed by a newline.\0AEnd with a backslash and a period on a line by itself, or an EOF signal.\00", align 1
@sigint_interrupt_enabled = external global i32, align 4
@.str.17 = private unnamed_addr constant [4 x i8] c"\\.\0A\00", align 1
@.str.18 = private unnamed_addr constant [5 x i8] c"\\.\0D\0A\00", align 1
@.str.19 = private unnamed_addr constant [32 x i8] c"aborted because of read failure\00", align 1
@.str.20 = private unnamed_addr constant [25 x i8] c"trying to exit copy mode\00", align 1

; Function Attrs: nounwind uwtable
define dso_local zeroext i1 @handleCopyIn(ptr noundef %0, ptr noundef %1, i1 noundef zeroext %2, ptr noundef %3) #0 {
  %5 = alloca ptr, align 8
  %6 = alloca ptr, align 8
  %7 = alloca i8, align 1
  %8 = alloca ptr, align 8
  %9 = alloca i8, align 1
  %10 = alloca [8192 x i8], align 16
  %11 = alloca i8, align 1
  %12 = alloca ptr, align 8
  %13 = alloca i32, align 4
  %14 = alloca i32, align 4
  %15 = alloca i8, align 1
  %16 = alloca i32, align 4
  %17 = alloca i8, align 1
  %18 = alloca ptr, align 8
  %19 = alloca ptr, align 8
  %20 = alloca i32, align 4
  store ptr %0, ptr %5, align 8
  store ptr %1, ptr %6, align 8
  %21 = zext i1 %2 to i8
  store i8 %21, ptr %7, align 1
  store ptr %3, ptr %8, align 8
  call void @llvm.lifetime.start.p0(i64 1, ptr %9) #7
  call void @llvm.lifetime.start.p0(i64 8192, ptr %10) #7
  call void @llvm.lifetime.start.p0(i64 1, ptr %11) #7
  %22 = call i32 @__sigsetjmp(ptr noundef @sigint_interrupt_jmp, i32 noundef 1) #10
  %23 = icmp ne i32 %22, 0
  br i1 %23, label %24, label %31

24:                                               ; preds = %4
  %25 = load ptr, ptr %5, align 8
  %26 = load ptr, ptr %5, align 8
  %27 = call i32 @PQprotocolVersion(ptr noundef %26)
  %28 = icmp slt i32 %27, 3
  %29 = select i1 %28, ptr null, ptr @.str.15
  %30 = call i32 @PQputCopyEnd(ptr noundef %25, ptr noundef %29)
  store i8 0, ptr %9, align 1
  br label %201

31:                                               ; preds = %4
  %32 = load ptr, ptr %6, align 8
  %33 = call i32 @fileno(ptr noundef %32) #7
  %34 = call i32 @isatty(i32 noundef %33) #7
  %35 = icmp ne i32 %34, 0
  br i1 %35, label %36, label %42

36:                                               ; preds = %31
  store i8 1, ptr %11, align 1
  %37 = load i8, ptr getelementptr inbounds nuw (%struct._psqlSettings, ptr @pset, i32 0, i32 33), align 2, !range !4, !noundef !5
  %38 = trunc i8 %37 to i1
  br i1 %38, label %41, label %39

39:                                               ; preds = %36
  %40 = call i32 @puts(ptr noundef @.str.16)
  br label %41

41:                                               ; preds = %39, %36
  br label %43

42:                                               ; preds = %31
  store i8 0, ptr %11, align 1
  br label %43

43:                                               ; preds = %42, %41
  store i8 1, ptr %9, align 1
  %44 = load i8, ptr %7, align 1, !range !4, !noundef !5
  %45 = trunc i8 %44 to i1
  br i1 %45, label %46, label %77

46:                                               ; preds = %43
  %47 = load i8, ptr %11, align 1, !range !4, !noundef !5
  %48 = trunc i8 %47 to i1
  br i1 %48, label %49, label %56

49:                                               ; preds = %46
  call void @llvm.lifetime.start.p0(i64 8, ptr %12) #7
  %50 = call ptr @get_prompt(i32 noundef 7, ptr noundef null)
  store ptr %50, ptr %12, align 8
  %51 = load ptr, ptr %12, align 8
  %52 = load ptr, ptr @stdout, align 8
  %53 = call i32 @fputs(ptr noundef %51, ptr noundef %52)
  %54 = load ptr, ptr @stdout, align 8
  %55 = call i32 @fflush(ptr noundef %54)
  call void @llvm.lifetime.end.p0(i64 8, ptr %12) #7
  br label %56

56:                                               ; preds = %49, %46
  br label %57

57:                                               ; preds = %75, %56
  call void @llvm.lifetime.start.p0(i64 4, ptr %13) #7
  store volatile i32 1, ptr @sigint_interrupt_enabled, align 4
  %58 = getelementptr inbounds [8192 x i8], ptr %10, i64 0, i64 0
  %59 = load ptr, ptr %6, align 8
  %60 = call i64 @fread(ptr noundef %58, i64 noundef 1, i64 noundef 8192, ptr noundef %59)
  %61 = trunc i64 %60 to i32
  store i32 %61, ptr %13, align 4
  store volatile i32 0, ptr @sigint_interrupt_enabled, align 4
  %62 = load i32, ptr %13, align 4
  %63 = icmp sle i32 %62, 0
  br i1 %63, label %64, label %65

64:                                               ; preds = %57
  store i32 3, ptr %14, align 4
  br label %73

65:                                               ; preds = %57
  %66 = load ptr, ptr %5, align 8
  %67 = getelementptr inbounds [8192 x i8], ptr %10, i64 0, i64 0
  %68 = load i32, ptr %13, align 4
  %69 = call i32 @PQputCopyData(ptr noundef %66, ptr noundef %67, i32 noundef %68)
  %70 = icmp sle i32 %69, 0
  br i1 %70, label %71, label %72

71:                                               ; preds = %65
  store i8 0, ptr %9, align 1
  store i32 3, ptr %14, align 4
  br label %73

72:                                               ; preds = %65
  store i32 0, ptr %14, align 4
  br label %73

73:                                               ; preds = %72, %71, %64
  call void @llvm.lifetime.end.p0(i64 4, ptr %13) #7
  %74 = load i32, ptr %14, align 4
  switch i32 %74, label %231 [
    i32 0, label %75
    i32 3, label %76
  ]

75:                                               ; preds = %73
  br label %57

76:                                               ; preds = %73
  br label %181

77:                                               ; preds = %43
  call void @llvm.lifetime.start.p0(i64 1, ptr %15) #7
  store i8 0, ptr %15, align 1
  call void @llvm.lifetime.start.p0(i64 4, ptr %16) #7
  call void @llvm.lifetime.start.p0(i64 1, ptr %17) #7
  store i8 1, ptr %17, align 1
  store i32 0, ptr %16, align 4
  br label %78

78:                                               ; preds = %179, %77
  %79 = load i8, ptr %15, align 1, !range !4, !noundef !5
  %80 = trunc i8 %79 to i1
  %81 = xor i1 %80, true
  br i1 %81, label %82, label %180

82:                                               ; preds = %78
  call void @llvm.lifetime.start.p0(i64 8, ptr %18) #7
  %83 = load i8, ptr %17, align 1, !range !4, !noundef !5
  %84 = trunc i8 %83 to i1
  br i1 %84, label %85, label %95

85:                                               ; preds = %82
  %86 = load i8, ptr %11, align 1, !range !4, !noundef !5
  %87 = trunc i8 %86 to i1
  br i1 %87, label %88, label %95

88:                                               ; preds = %85
  call void @llvm.lifetime.start.p0(i64 8, ptr %19) #7
  %89 = call ptr @get_prompt(i32 noundef 7, ptr noundef null)
  store ptr %89, ptr %19, align 8
  %90 = load ptr, ptr %19, align 8
  %91 = load ptr, ptr @stdout, align 8
  %92 = call i32 @fputs(ptr noundef %90, ptr noundef %91)
  %93 = load ptr, ptr @stdout, align 8
  %94 = call i32 @fflush(ptr noundef %93)
  call void @llvm.lifetime.end.p0(i64 8, ptr %19) #7
  br label %95

95:                                               ; preds = %88, %85, %82
  store volatile i32 1, ptr @sigint_interrupt_enabled, align 4
  %96 = load i32, ptr %16, align 4
  %97 = sext i32 %96 to i64
  %98 = getelementptr inbounds [8192 x i8], ptr %10, i64 0, i64 %97
  %99 = load i32, ptr %16, align 4
  %100 = sub i32 8192, %99
  %101 = load ptr, ptr %6, align 8
  %102 = call ptr @fgets(ptr noundef %98, i32 noundef %100, ptr noundef %101)
  store ptr %102, ptr %18, align 8
  store volatile i32 0, ptr @sigint_interrupt_enabled, align 4
  %103 = load ptr, ptr %18, align 8
  %104 = icmp ne ptr %103, null
  br i1 %104, label %106, label %105

105:                                              ; preds = %95
  store i8 1, ptr %15, align 1
  br label %159

106:                                              ; preds = %95
  call void @llvm.lifetime.start.p0(i64 4, ptr %20) #7
  %107 = load ptr, ptr %18, align 8
  %108 = call i64 @strlen(ptr noundef %107) #9
  %109 = trunc i64 %108 to i32
  store i32 %109, ptr %20, align 4
  %110 = load i32, ptr %20, align 4
  %111 = load i32, ptr %16, align 4
  %112 = add i32 %111, %110
  store i32 %112, ptr %16, align 4
  %113 = load i32, ptr %16, align 4
  %114 = sub i32 %113, 1
  %115 = sext i32 %114 to i64
  %116 = getelementptr inbounds [8192 x i8], ptr %10, i64 0, i64 %115
  %117 = load i8, ptr %116, align 1
  %118 = sext i8 %117 to i32
  %119 = icmp eq i32 %118, 10
  br i1 %119, label %120, label %157

120:                                              ; preds = %106
  %121 = load i8, ptr %17, align 1, !range !4, !noundef !5
  %122 = trunc i8 %121 to i1
  br i1 %122, label %123, label %147

123:                                              ; preds = %120
  %124 = load ptr, ptr %6, align 8
  %125 = load ptr, ptr getelementptr inbounds nuw (%struct._psqlSettings, ptr @pset, i32 0, i32 20), align 8
  %126 = icmp eq ptr %124, %125
  br i1 %126, label %127, label %147

127:                                              ; preds = %123
  %128 = load i32, ptr %20, align 4
  %129 = icmp eq i32 %128, 3
  br i1 %129, label %130, label %134

130:                                              ; preds = %127
  %131 = load ptr, ptr %18, align 8
  %132 = call i32 @memcmp(ptr noundef %131, ptr noundef @.str.17, i64 noundef 3) #9
  %133 = icmp eq i32 %132, 0
  br i1 %133, label %141, label %134

134:                                              ; preds = %130, %127
  %135 = load i32, ptr %20, align 4
  %136 = icmp eq i32 %135, 4
  br i1 %136, label %137, label %146

137:                                              ; preds = %134
  %138 = load ptr, ptr %18, align 8
  %139 = call i32 @memcmp(ptr noundef %138, ptr noundef @.str.18, i64 noundef 4) #9
  %140 = icmp eq i32 %139, 0
  br i1 %140, label %141, label %146

141:                                              ; preds = %137, %130
  store i8 1, ptr %15, align 1
  %142 = load ptr, ptr %18, align 8
  store i8 0, ptr %142, align 1
  %143 = load i32, ptr %20, align 4
  %144 = load i32, ptr %16, align 4
  %145 = sub i32 %144, %143
  store i32 %145, ptr %16, align 4
  br label %146

146:                                              ; preds = %141, %137, %134
  br label %147

147:                                              ; preds = %146, %123, %120
  %148 = load ptr, ptr %6, align 8
  %149 = load ptr, ptr getelementptr inbounds nuw (%struct._psqlSettings, ptr @pset, i32 0, i32 20), align 8
  %150 = icmp eq ptr %148, %149
  br i1 %150, label %151, label %156

151:                                              ; preds = %147
  %152 = load i64, ptr getelementptr inbounds nuw (%struct._psqlSettings, ptr @pset, i32 0, i32 25), align 8
  %153 = add i64 %152, 1
  store i64 %153, ptr getelementptr inbounds nuw (%struct._psqlSettings, ptr @pset, i32 0, i32 25), align 8
  %154 = load i64, ptr getelementptr inbounds nuw (%struct._psqlSettings, ptr @pset, i32 0, i32 26), align 8
  %155 = add i64 %154, 1
  store i64 %155, ptr getelementptr inbounds nuw (%struct._psqlSettings, ptr @pset, i32 0, i32 26), align 8
  br label %156

156:                                              ; preds = %151, %147
  store i8 1, ptr %17, align 1
  br label %158

157:                                              ; preds = %106
  store i8 0, ptr %17, align 1
  br label %158

158:                                              ; preds = %157, %156
  call void @llvm.lifetime.end.p0(i64 4, ptr %20) #7
  br label %159

159:                                              ; preds = %158, %105
  %160 = load i32, ptr %16, align 4
  %161 = icmp sge i32 %160, 8187
  br i1 %161, label %168, label %162

162:                                              ; preds = %159
  %163 = load i8, ptr %15, align 1, !range !4, !noundef !5
  %164 = trunc i8 %163 to i1
  br i1 %164, label %165, label %176

165:                                              ; preds = %162
  %166 = load i32, ptr %16, align 4
  %167 = icmp sgt i32 %166, 0
  br i1 %167, label %168, label %176

168:                                              ; preds = %165, %159
  %169 = load ptr, ptr %5, align 8
  %170 = getelementptr inbounds [8192 x i8], ptr %10, i64 0, i64 0
  %171 = load i32, ptr %16, align 4
  %172 = call i32 @PQputCopyData(ptr noundef %169, ptr noundef %170, i32 noundef %171)
  %173 = icmp sle i32 %172, 0
  br i1 %173, label %174, label %175

174:                                              ; preds = %168
  store i8 0, ptr %9, align 1
  store i32 6, ptr %14, align 4
  br label %177

175:                                              ; preds = %168
  store i32 0, ptr %16, align 4
  br label %176

176:                                              ; preds = %175, %165, %162
  store i32 0, ptr %14, align 4
  br label %177

177:                                              ; preds = %176, %174
  call void @llvm.lifetime.end.p0(i64 8, ptr %18) #7
  %178 = load i32, ptr %14, align 4
  switch i32 %178, label %231 [
    i32 0, label %179
    i32 6, label %180
  ]

179:                                              ; preds = %177
  br label %78, !llvm.loop !8

180:                                              ; preds = %177, %78
  call void @llvm.lifetime.end.p0(i64 1, ptr %17) #7
  call void @llvm.lifetime.end.p0(i64 4, ptr %16) #7
  call void @llvm.lifetime.end.p0(i64 1, ptr %15) #7
  br label %181

181:                                              ; preds = %180, %76
  %182 = load ptr, ptr %6, align 8
  %183 = call i32 @ferror(ptr noundef %182) #7
  %184 = icmp ne i32 %183, 0
  br i1 %184, label %185, label %186

185:                                              ; preds = %181
  store i8 0, ptr %9, align 1
  br label %186

186:                                              ; preds = %185, %181
  %187 = load ptr, ptr %5, align 8
  %188 = load i8, ptr %9, align 1, !range !4, !noundef !5
  %189 = trunc i8 %188 to i1
  br i1 %189, label %194, label %190

190:                                              ; preds = %186
  %191 = load ptr, ptr %5, align 8
  %192 = call i32 @PQprotocolVersion(ptr noundef %191)
  %193 = icmp slt i32 %192, 3
  br label %194

194:                                              ; preds = %190, %186
  %195 = phi i1 [ true, %186 ], [ %193, %190 ]
  %196 = select i1 %195, ptr null, ptr @.str.19
  %197 = call i32 @PQputCopyEnd(ptr noundef %187, ptr noundef %196)
  %198 = icmp sle i32 %197, 0
  br i1 %198, label %199, label %200

199:                                              ; preds = %194
  store i8 0, ptr %9, align 1
  br label %200

200:                                              ; preds = %199, %194
  br label %201

201:                                              ; preds = %200, %24
  %202 = load ptr, ptr %6, align 8
  call void @clearerr(ptr noundef %202) #7
  br label %203

203:                                              ; preds = %211, %201
  %204 = load ptr, ptr %5, align 8
  %205 = call ptr @PQgetResult(ptr noundef %204)
  %206 = load ptr, ptr %8, align 8
  store ptr %205, ptr %206, align 8
  %207 = load ptr, ptr %8, align 8
  %208 = load ptr, ptr %207, align 8
  %209 = call i32 @PQresultStatus(ptr noundef %208)
  %210 = icmp eq i32 %209, 4
  br i1 %210, label %211, label %220

211:                                              ; preds = %203
  store i8 0, ptr %9, align 1
  %212 = load ptr, ptr %8, align 8
  %213 = load ptr, ptr %212, align 8
  call void @PQclear(ptr noundef %213)
  %214 = load ptr, ptr %5, align 8
  %215 = load ptr, ptr %5, align 8
  %216 = call i32 @PQprotocolVersion(ptr noundef %215)
  %217 = icmp slt i32 %216, 3
  %218 = select i1 %217, ptr null, ptr @.str.20
  %219 = call i32 @PQputCopyEnd(ptr noundef %214, ptr noundef %218)
  br label %203, !llvm.loop !9

220:                                              ; preds = %203
  %221 = load ptr, ptr %8, align 8
  %222 = load ptr, ptr %221, align 8
  %223 = call i32 @PQresultStatus(ptr noundef %222)
  %224 = icmp ne i32 %223, 1
  br i1 %224, label %225, label %228

225:                                              ; preds = %220
  %226 = load ptr, ptr %5, align 8
  %227 = call ptr @PQerrorMessage(ptr noundef %226)
  call void (i32, i32, ptr, ...) @pg_log_generic(i32 noundef 2, i32 noundef 0, ptr noundef @.str.14, ptr noundef %227)
  store i8 0, ptr %9, align 1
  br label %228

228:                                              ; preds = %225, %220
  %229 = load i8, ptr %9, align 1, !range !4, !noundef !5
  %230 = trunc i8 %229 to i1
  store i32 1, ptr %14, align 4
  call void @llvm.lifetime.end.p0(i64 1, ptr %11) #7
  call void @llvm.lifetime.end.p0(i64 8192, ptr %10) #7
  call void @llvm.lifetime.end.p0(i64 1, ptr %9) #7
  ret i1 %230

231:                                              ; preds = %177, %73
  unreachable
}