; Function Attrs: nounwind uwtable
define dso_local zeroext i1 @handleCopyIn(ptr noundef %0, ptr noundef captures(address) %1, i1 noundef zeroext %2, ptr noundef captures(none) %3) local_unnamed_addr #0 {
  %5 = alloca [8192 x i8], align 16
  call void @llvm.lifetime.start.p0(i64 8192, ptr nonnull %5) #11
  %6 = call i32 @__sigsetjmp(ptr noundef nonnull @sigint_interrupt_jmp, i32 noundef 1) #14
  %.not = icmp eq i32 %6, 0
  br i1 %.not, label %12, label %7

7:                                                ; preds = %4
  %8 = call i32 @PQprotocolVersion(ptr noundef %0) #11
  %9 = icmp slt i32 %8, 3
  %10 = select i1 %9, ptr null, ptr @.str.15
  %11 = call i32 @PQputCopyEnd(ptr noundef %0, ptr noundef %10) #11
  br label %87

12:                                               ; preds = %4
  %13 = call i32 @fileno(ptr noundef %1) #11
  %14 = call i32 @isatty(i32 noundef %13) #11
  %.not71.not = icmp ne i32 %14, 0
  br i1 %.not71.not, label %15, label %.thread

15:                                               ; preds = %12
  %16 = load i8, ptr getelementptr inbounds nuw (i8, ptr @pset, i64 402), align 2, !range !6, !noundef !7
  %17 = trunc nuw i8 %16 to i1
  br i1 %17, label %20, label %18

18:                                               ; preds = %15
  %19 = call i32 @puts(ptr noundef nonnull dereferenceable(1) @.str.16)
  br label %20

20:                                               ; preds = %15, %18
  br i1 %2, label %21, label %.preheader.preheader

.thread:                                          ; preds = %12
  br i1 %2, label %.thread84.preheader, label %.preheader.preheader

.preheader.preheader:                             ; preds = %20, %.thread
  br label %.preheader

21:                                               ; preds = %20
  %22 = call ptr @get_prompt(i32 noundef 7, ptr noundef null) #11
  %23 = load ptr, ptr @stdout, align 8
  %24 = call i32 @fputs(ptr noundef %22, ptr noundef %23)
  %25 = load ptr, ptr @stdout, align 8
  %26 = call i32 @fflush(ptr noundef %25)
  br label %.thread84.preheader

.thread84.preheader:                              ; preds = %.thread, %21
  br label %.thread84

.thread84:                                        ; preds = %.thread84.preheader, %30
  store volatile i32 1, ptr @sigint_interrupt_enabled, align 4
  %27 = call i64 @fread(ptr noundef nonnull %5, i64 noundef 1, i64 noundef 8192, ptr noundef %1)
  %28 = trunc i64 %27 to i32
  store volatile i32 0, ptr @sigint_interrupt_enabled, align 4
  %29 = icmp slt i32 %28, 1
  br i1 %29, label %.thread85, label %30

30:                                               ; preds = %.thread84
  %31 = call i32 @PQputCopyData(ptr noundef %0, ptr noundef nonnull %5, i32 noundef %28) #11
  %32 = icmp slt i32 %31, 1
  br i1 %32, label %.thread85, label %.thread84

.preheader:                                       ; preds = %.preheader.preheader, %76
  %.05697 = phi i1 [ %.157, %76 ], [ true, %.preheader.preheader ]
  %.05996 = phi i32 [ %.564, %76 ], [ 0, %.preheader.preheader ]
  %brmerge.not = and i1 %.not71.not, %.05697
  br i1 %brmerge.not, label %33, label %39

33:                                               ; preds = %.preheader
  %34 = call ptr @get_prompt(i32 noundef 7, ptr noundef null) #11
  %35 = load ptr, ptr @stdout, align 8
  %36 = call i32 @fputs(ptr noundef %34, ptr noundef %35)
  %37 = load ptr, ptr @stdout, align 8
  %38 = call i32 @fflush(ptr noundef %37)
  br label %39

39:                                               ; preds = %.preheader, %33
  store volatile i32 1, ptr @sigint_interrupt_enabled, align 4
  %40 = sext i32 %.05996 to i64
  %41 = getelementptr inbounds [8192 x i8], ptr %5, i64 0, i64 %40
  %42 = sub i32 8192, %.05996
  %43 = call ptr @fgets(ptr noundef nonnull %41, i32 noundef %42, ptr noundef %1)
  store volatile i32 0, ptr @sigint_interrupt_enabled, align 4
  %.not72 = icmp eq ptr %43, null
  br i1 %.not72, label %69, label %44

44:                                               ; preds = %39
  %45 = call i64 @strlen(ptr noundef nonnull dereferenceable(1) %43) #12
  %46 = trunc i64 %45 to i32
  %47 = add i32 %.05996, %46
  %48 = add i32 %47, -1
  %49 = sext i32 %48 to i64
  %50 = getelementptr inbounds [8192 x i8], ptr %5, i64 0, i64 %49
  %51 = load i8, ptr %50, align 1
  %52 = icmp eq i8 %51, 10
  br i1 %52, label %53, label %69

53:                                               ; preds = %44
  %54 = load ptr, ptr getelementptr inbounds nuw (i8, ptr @pset, i64 320), align 8
  %55 = icmp eq ptr %1, %54
  %or.cond78 = select i1 %.05697, i1 %55, i1 false
  br i1 %or.cond78, label %56, label %62

56:                                               ; preds = %53
  switch i32 %46, label %.thread100 [
    i32 3, label %57
    i32 4, label %59
  ]

57:                                               ; preds = %56
  %bcmp = call i32 @bcmp(ptr noundef nonnull dereferenceable(3) %43, ptr noundef nonnull dereferenceable(3) @.str.17, i64 3)
  %58 = icmp eq i32 %bcmp, 0
  br i1 %58, label %61, label %.thread100

59:                                               ; preds = %56
  %bcmp73 = call i32 @bcmp(ptr noundef nonnull dereferenceable(4) %43, ptr noundef nonnull dereferenceable(4) @.str.18, i64 4)
  %60 = icmp eq i32 %bcmp73, 0
  br i1 %60, label %61, label %.thread100

61:                                               ; preds = %59, %57
  store i8 0, ptr %43, align 1
  %.pre = load ptr, ptr getelementptr inbounds nuw (i8, ptr @pset, i64 320), align 8
  br label %62

62:                                               ; preds = %61, %53
  %63 = phi ptr [ %.pre, %61 ], [ %54, %53 ]
  %.267 = phi i8 [ 1, %61 ], [ 0, %53 ]
  %.261 = phi i32 [ %.05996, %61 ], [ %47, %53 ]
  %64 = icmp eq ptr %1, %63
  br i1 %64, label %.thread100, label %69

.thread100:                                       ; preds = %57, %56, %59, %62
  %.261104 = phi i32 [ %.261, %62 ], [ %47, %59 ], [ %47, %56 ], [ %47, %57 ]
  %.267103 = phi i8 [ %.267, %62 ], [ 0, %59 ], [ 0, %56 ], [ 0, %57 ]
  %65 = load i64, ptr getelementptr inbounds nuw (i8, ptr @pset, i64 352), align 8
  %66 = add i64 %65, 1
  store i64 %66, ptr getelementptr inbounds nuw (i8, ptr @pset, i64 352), align 8
  %67 = load i64, ptr getelementptr inbounds nuw (i8, ptr @pset, i64 360), align 8
  %68 = add i64 %67, 1
  store i64 %68, ptr getelementptr inbounds nuw (i8, ptr @pset, i64 360), align 8
  br label %69

69:                                               ; preds = %.thread100, %62, %44, %39
  %.166 = phi i8 [ 1, %39 ], [ %.267103, %.thread100 ], [ %.267, %62 ], [ 0, %44 ]
  %.160 = phi i32 [ %.05996, %39 ], [ %.261104, %.thread100 ], [ %.261, %62 ], [ %47, %44 ]
  %.157 = phi i1 [ %.05697, %39 ], [ true, %.thread100 ], [ true, %62 ], [ false, %44 ]
  %70 = icmp sgt i32 %.160, 8186
  %71 = trunc nuw i8 %.166 to i1
  %72 = icmp sgt i32 %.160, 0
  %or.cond = and i1 %72, %71
  %or.cond80 = select i1 %70, i1 true, i1 %or.cond
  br i1 %or.cond80, label %73, label %76

73:                                               ; preds = %69
  %74 = call i32 @PQputCopyData(ptr noundef %0, ptr noundef nonnull %5, i32 noundef %.160) #11
  %75 = icmp slt i32 %74, 1
  br i1 %75, label %.thread85, label %76

76:                                               ; preds = %73, %69
  %.564 = phi i32 [ %.160, %69 ], [ 0, %73 ]
  br i1 %71, label %.thread85, label %.preheader

.thread85:                                        ; preds = %73, %76, %30, %.thread84
  %.3 = phi i8 [ 0, %30 ], [ 1, %.thread84 ], [ 0, %73 ], [ 1, %76 ]
  %77 = call i32 @ferror(ptr noundef %1) #11
  %.not74 = icmp eq i32 %77, 0
  %spec.select = select i1 %.not74, i8 %.3, i8 0
  %78 = trunc nuw i8 %spec.select to i1
  br i1 %78, label %83, label %79

79:                                               ; preds = %.thread85
  %80 = call i32 @PQprotocolVersion(ptr noundef %0) #11
  %81 = icmp slt i32 %80, 3
  %82 = select i1 %81, ptr null, ptr @.str.19
  br label %83

83:                                               ; preds = %79, %.thread85
  %84 = phi ptr [ null, %.thread85 ], [ %82, %79 ]
  %85 = call i32 @PQputCopyEnd(ptr noundef %0, ptr noundef %84) #11
  %86 = icmp slt i32 %85, 1
  %spec.select83 = select i1 %86, i8 0, i8 %spec.select
  br label %87

87:                                               ; preds = %83, %7
  %.0 = phi i8 [ 0, %7 ], [ %spec.select83, %83 ]
  call void @clearerr(ptr noundef %1) #11
  %88 = call ptr @PQgetResult(ptr noundef %0) #11
  store ptr %88, ptr %3, align 8
  %89 = call i32 @PQresultStatus(ptr noundef %88) #11
  %90 = icmp eq i32 %89, 4
  br i1 %90, label %.lr.ph, label %._crit_edge

.lr.ph:                                           ; preds = %87, %.lr.ph
  %91 = load ptr, ptr %3, align 8
  call void @PQclear(ptr noundef %91) #11
  %92 = call i32 @PQprotocolVersion(ptr noundef %0) #11
  %93 = icmp slt i32 %92, 3
  %94 = select i1 %93, ptr null, ptr @.str.20
  %95 = call i32 @PQputCopyEnd(ptr noundef %0, ptr noundef %94) #11
  %96 = call ptr @PQgetResult(ptr noundef %0) #11
  store ptr %96, ptr %3, align 8
  %97 = call i32 @PQresultStatus(ptr noundef %96) #11
  %98 = icmp eq i32 %97, 4
  br i1 %98, label %.lr.ph, label %._crit_edge, !llvm.loop !8

._crit_edge:                                      ; preds = %.lr.ph, %87
  %.8.lcssa = phi i8 [ %.0, %87 ], [ 0, %.lr.ph ]
  %99 = load ptr, ptr %3, align 8
  %100 = call i32 @PQresultStatus(ptr noundef %99) #11
  %.not75 = icmp eq i32 %100, 1
  br i1 %.not75, label %103, label %101

101:                                              ; preds = %._crit_edge
  %102 = call ptr @PQerrorMessage(ptr noundef %0) #11
  call void (i32, i32, ptr, ...) @pg_log_generic(i32 noundef 2, i32 noundef 0, ptr noundef nonnull @.str.14, ptr noundef %102) #11
  br label %103

103:                                              ; preds = %101, %._crit_edge
  %.9 = phi i8 [ 0, %101 ], [ %.8.lcssa, %._crit_edge ]
  %104 = trunc nuw i8 %.9 to i1
  call void @llvm.lifetime.end.p0(i64 8192, ptr nonnull %5) #11
  ret i1 %104
}